target datalayout = "e-m:e-p270:32:32-p271:32:32-p272:64:64-i64:64-i128:128-f80:128-n8:16:32:64-S128"
target triple = "x86_64-pc-linux-gnu"

%struct.SDL_AtomicInt = type { i32 }
%struct.SDL_HIDAPI_Device = type { ptr, ptr, ptr, ptr, i16, i16, i16, ptr, %struct.SDL_GUID, i32, i32, i32, i32, i16, i16, i8, i32, i32, i32, ptr, ptr, ptr, ptr, %struct.SDL_AtomicInt, i32, ptr, i8, i8, i8, ptr, i32, ptr, ptr }
%struct.SDL_GUID = type { [16 x i8] }

@SDL_HIDAPI_numjoysticks = internal global i32 0, align 4
@shutting_down = internal global i8 0, align 1
@SDL_HIDAPI_change_count = internal global i32 0, align 4

; Function Attrs: nounwind uwtable
define internal zeroext i1 @HIDAPI_DelJoystickInstanceFromDevice(ptr noundef %0, i32 noundef %1) #0 {
  %3 = alloca i1, align 1
  %4 = alloca ptr, align 8
  %5 = alloca i32, align 4
  %6 = alloca i32, align 4
  %7 = alloca i32, align 4
  %8 = alloca i32, align 4
  store ptr %0, ptr %4, align 8
  store i32 %1, ptr %5, align 4
  call void @llvm.lifetime.start.p0(i64 4, ptr %6) #7
  call void @llvm.lifetime.start.p0(i64 4, ptr %7) #7
  store i32 0, ptr %6, align 4
  br label %9

9:                                                ; preds = %66, %2
  %10 = load i32, ptr %6, align 4
  %11 = load ptr, ptr %4, align 8
  %12 = getelementptr inbounds nuw %struct.SDL_HIDAPI_Device, ptr %11, i32 0, i32 24
  %13 = load i32, ptr %12, align 4
  %14 = icmp slt i32 %10, %13
  br i1 %14, label %15, label %69

15:                                               ; preds = %9
  %16 = load ptr, ptr %4, align 8
  %17 = getelementptr inbounds nuw %struct.SDL_HIDAPI_Device, ptr %16, i32 0, i32 25
  %18 = load ptr, ptr %17, align 8
  %19 = load i32, ptr %6, align 4
  %20 = sext i32 %19 to i64
  %21 = getelementptr inbounds i32, ptr %18, i64 %20
  %22 = load i32, ptr %21, align 4
  %23 = load i32, ptr %5, align 4
  %24 = icmp eq i32 %22, %23
  br i1 %24, label %25, label %65

25:                                               ; preds = %15
  %26 = load ptr, ptr %4, align 8
  %27 = getelementptr inbounds nuw %struct.SDL_HIDAPI_Device, ptr %26, i32 0, i32 24
  %28 = load i32, ptr %27, align 4
  %29 = load i32, ptr %6, align 4
  %30 = sub nsw i32 %28, %29
  %31 = sub nsw i32 %30, 1
  %32 = sext i32 %31 to i64
  %33 = mul i64 %32, 4
  %34 = trunc i64 %33 to i32
  store i32 %34, ptr %7, align 4
  %35 = load ptr, ptr %4, align 8
  %36 = getelementptr inbounds nuw %struct.SDL_HIDAPI_Device, ptr %35, i32 0, i32 25
  %37 = load ptr, ptr %36, align 8
  %38 = load i32, ptr %6, align 4
  %39 = sext i32 %38 to i64
  %40 = getelementptr inbounds i32, ptr %37, i64 %39
  %41 = load ptr, ptr %4, align 8
  %42 = getelementptr inbounds nuw %struct.SDL_HIDAPI_Device, ptr %41, i32 0, i32 25
  %43 = load ptr, ptr %42, align 8
  %44 = load i32, ptr %6, align 4
  %45 = add nsw i32 %44, 1
  %46 = sext i32 %45 to i64
  %47 = getelementptr inbounds i32, ptr %43, i64 %46
  %48 = load i32, ptr %7, align 4
  %49 = sext i32 %48 to i64
  call void @llvm.memmove.p0.p0.i64(ptr align 4 %40, ptr align 4 %47, i64 %49, i1 false)
  %50 = load ptr, ptr %4, align 8
  %51 = getelementptr inbounds nuw %struct.SDL_HIDAPI_Device, ptr %50, i32 0, i32 24
  %52 = load i32, ptr %51, align 4
  %53 = add nsw i32 %52, -1
  store i32 %53, ptr %51, align 4
  %54 = load ptr, ptr %4, align 8
  %55 = getelementptr inbounds nuw %struct.SDL_HIDAPI_Device, ptr %54, i32 0, i32 24
  %56 = load i32, ptr %55, align 4
  %57 = icmp eq i32 %56, 0
  br i1 %57, label %58, label %64

58:                                               ; preds = %25
  %59 = load ptr, ptr %4, align 8
  %60 = getelementptr inbounds nuw %struct.SDL_HIDAPI_Device, ptr %59, i32 0, i32 25
  %61 = load ptr, ptr %60, align 8
  call void @SDL_free_REAL(ptr noundef %61)
  %62 = load ptr, ptr %4, align 8
  %63 = getelementptr inbounds nuw %struct.SDL_HIDAPI_Device, ptr %62, i32 0, i32 25
  store ptr null, ptr %63, align 8
  br label %64

64:                                               ; preds = %58, %25
  store i1 true, ptr %3, align 1
  store i32 1, ptr %8, align 4
  br label %70

65:                                               ; preds = %15
  br label %66

66:                                               ; preds = %65
  %67 = load i32, ptr %6, align 4
  %68 = add nsw i32 %67, 1
  store i32 %68, ptr %6, align 4
  br label %9, !llvm.loop !17

69:                                               ; preds = %9
  store i1 false, ptr %3, align 1
  store i32 1, ptr %8, align 4
  br label %70

70:                                               ; preds = %69, %64
  call void @llvm.lifetime.end.p0(i64 4, ptr %7) #7
  call void @llvm.lifetime.end.p0(i64 4, ptr %6) #7
  %71 = load i1, ptr %3, align 1
  ret i1 %71
}

; Function Attrs: nounwind uwtable
define internal zeroext i1 @HIDAPI_JoystickInstanceIsUnique(ptr noundef %0, i32 noundef %1) #0 {
  %3 = alloca i1, align 1
  %4 = alloca ptr, align 8
  %5 = alloca i32, align 4
  store ptr %0, ptr %4, align 8
  store i32 %1, ptr %5, align 4
  %6 = load ptr, ptr %4, align 8
  %7 = getelementptr inbounds nuw %struct.SDL_HIDAPI_Device, ptr %6, i32 0, i32 29
  %8 = load ptr, ptr %7, align 8
  %9 = icmp ne ptr %8, null
  br i1 %9, label %10, label %37

10:                                               ; preds = %2
  %11 = load ptr, ptr %4, align 8
  %12 = getelementptr inbounds nuw %struct.SDL_HIDAPI_Device, ptr %11, i32 0, i32 24
  %13 = load i32, ptr %12, align 4
  %14 = icmp eq i32 %13, 1
  br i1 %14, label %15, label %37

15:                                               ; preds = %10
  %16 = load ptr, ptr %4, align 8
  %17 = getelementptr inbounds nuw %struct.SDL_HIDAPI_Device, ptr %16, i32 0, i32 29
  %18 = load ptr, ptr %17, align 8
  %19 = getelementptr inbounds nuw %struct.SDL_HIDAPI_Device, ptr %18, i32 0, i32 24
  %20 = load i32, ptr %19, align 4
  %21 = icmp eq i32 %20, 1
  br i1 %21, label %22, label %37

22:                                               ; preds = %15
  %23 = load ptr, ptr %4, align 8
  %24 = getelementptr inbounds nuw %struct.SDL_HIDAPI_Device, ptr %23, i32 0, i32 25
  %25 = load ptr, ptr %24, align 8
  %26 = getelementptr inbounds i32, ptr %25, i64 0
  %27 = load i32, ptr %26, align 4
  %28 = load ptr, ptr %4, align 8
  %29 = getelementptr inbounds nuw %struct.SDL_HIDAPI_Device, ptr %28, i32 0, i32 29
  %30 = load ptr, ptr %29, align 8
  %31 = getelementptr inbounds nuw %struct.SDL_HIDAPI_Device, ptr %30, i32 0, i32 25
  %32 = load ptr, ptr %31, align 8
  %33 = getelementptr inbounds i32, ptr %32, i64 0
  %34 = load i32, ptr %33, align 4
  %35 = icmp eq i32 %27, %34
  br i1 %35, label %36, label %37

36:                                               ; preds = %22
  store i1 false, ptr %3, align 1
  br label %38

37:                                               ; preds = %22, %15, %10, %2
  store i1 true, ptr %3, align 1
  br label %38

38:                                               ; preds = %37, %36
  %39 = load i1, ptr %3, align 1
  ret i1 %39
}

; Function Attrs: nounwind uwtable
define hidden void @HIDAPI_JoystickDisconnected(ptr noundef %0, i32 noundef %1) #0 {
  %3 = alloca ptr, align 8
  %4 = alloca i32, align 4
  %5 = alloca i32, align 4
  %6 = alloca i32, align 4
  %7 = alloca ptr, align 8
  %8 = alloca ptr, align 8
  store ptr %0, ptr %3, align 8
  store i32 %1, ptr %4, align 4
  call void @llvm.lifetime.start.p0(i64 4, ptr %5) #7
  call void @llvm.lifetime.start.p0(i64 4, ptr %6) #7
  call void @SDL_LockJoysticks_REAL()
  %9 = load ptr, ptr %3, align 8
  %10 = load i32, ptr %4, align 4
  %11 = call zeroext i1 @HIDAPI_JoystickInstanceIsUnique(ptr noundef %9, i32 noundef %10)
  br i1 %11, label %16, label %12

12:                                               ; preds = %2
  %13 = load ptr, ptr %3, align 8
  %14 = getelementptr inbounds nuw %struct.SDL_HIDAPI_Device, ptr %13, i32 0, i32 29
  %15 = load ptr, ptr %14, align 8
  store ptr %15, ptr %3, align 8
  br label %16

16:                                               ; preds = %12, %2
  store i32 0, ptr %5, align 4
  br label %17

17:                                               ; preds = %73, %16
  %18 = load i32, ptr %5, align 4
  %19 = load ptr, ptr %3, align 8
  %20 = getelementptr inbounds nuw %struct.SDL_HIDAPI_Device, ptr %19, i32 0, i32 24
  %21 = load i32, ptr %20, align 4
  %22 = icmp slt i32 %18, %21
  br i1 %22, label %23, label %76

23:                                               ; preds = %17
  %24 = load ptr, ptr %3, align 8
  %25 = getelementptr inbounds nuw %struct.SDL_HIDAPI_Device, ptr %24, i32 0, i32 25
  %26 = load ptr, ptr %25, align 8
  %27 = load i32, ptr %5, align 4
  %28 = sext i32 %27 to i64
  %29 = getelementptr inbounds i32, ptr %26, i64 %28
  %30 = load i32, ptr %29, align 4
  %31 = load i32, ptr %4, align 4
  %32 = icmp eq i32 %30, %31
  br i1 %32, label %33, label %72

33:                                               ; preds = %23
  call void @llvm.lifetime.start.p0(i64 8, ptr %7) #7
  %34 = load i32, ptr %4, align 4
  %35 = call ptr @SDL_GetJoystickFromID_REAL(i32 noundef %34)
  store ptr %35, ptr %7, align 8
  %36 = load ptr, ptr %7, align 8
  %37 = icmp ne ptr %36, null
  br i1 %37, label %38, label %40

38:                                               ; preds = %33
  %39 = load ptr, ptr %7, align 8
  call void @HIDAPI_JoystickClose(ptr noundef %39)
  br label %40

40:                                               ; preds = %38, %33
  %41 = load ptr, ptr %3, align 8
  %42 = load i32, ptr %4, align 4
  %43 = call zeroext i1 @HIDAPI_DelJoystickInstanceFromDevice(ptr noundef %41, i32 noundef %42)
  store i32 0, ptr %6, align 4
  br label %44

44:                                               ; preds = %61, %40
  %45 = load i32, ptr %6, align 4
  %46 = load ptr, ptr %3, align 8
  %47 = getelementptr inbounds nuw %struct.SDL_HIDAPI_Device, ptr %46, i32 0, i32 30
  %48 = load i32, ptr %47, align 8
  %49 = icmp slt i32 %45, %48
  br i1 %49, label %50, label %64

50:                                               ; preds = %44
  call void @llvm.lifetime.start.p0(i64 8, ptr %8) #7
  %51 = load ptr, ptr %3, align 8
  %52 = getelementptr inbounds nuw %struct.SDL_HIDAPI_Device, ptr %51, i32 0, i32 31
  %53 = load ptr, ptr %52, align 8
  %54 = load i32, ptr %6, align 4
  %55 = sext i32 %54 to i64
  %56 = getelementptr inbounds ptr, ptr %53, i64 %55
  %57 = load ptr, ptr %56, align 8
  store ptr %57, ptr %8, align 8
  %58 = load ptr, ptr %8, align 8
  %59 = load i32, ptr %4, align 4
  %60 = call zeroext i1 @HIDAPI_DelJoystickInstanceFromDevice(ptr noundef %58, i32 noundef %59)
  call void @llvm.lifetime.end.p0(i64 8, ptr %8) #7
  br label %61

61:                                               ; preds = %50
  %62 = load i32, ptr %6, align 4
  %63 = add nsw i32 %62, 1
  store i32 %63, ptr %6, align 4
  br label %44, !llvm.loop !11

64:                                               ; preds = %44
  %65 = load i32, ptr @SDL_HIDAPI_numjoysticks, align 4
  %66 = add nsw i32 %65, -1
  store i32 %66, ptr @SDL_HIDAPI_numjoysticks, align 4
  %67 = load i8, ptr @shutting_down, align 1, !range !6, !noundef !7
  %68 = trunc i8 %67 to i1
  br i1 %68, label %71, label %69

69:                                               ; preds = %64
  %70 = load i32, ptr %4, align 4
  call void @SDL_PrivateJoystickRemoved(i32 noundef %70)
  br label %71

71:                                               ; preds = %69, %64
  call void @llvm.lifetime.end.p0(i64 8, ptr %7) #7
  br label %72

72:                                               ; preds = %71, %23
  br label %73

73:                                               ; preds = %72
  %74 = load i32, ptr %5, align 4
  %75 = add nsw i32 %74, 1
  store i32 %75, ptr %5, align 4
  br label %17, !llvm.loop !12

76:                                               ; preds = %17
  store i32 0, ptr @SDL_HIDAPI_change_count, align 4
  call void @SDL_UnlockJoysticks_REAL()
  call void @llvm.lifetime.end.p0(i64 4, ptr %6) #7
  call void @llvm.lifetime.end.p0(i64 4, ptr %5) #7
  ret void
}