; Function Attrs: nounwind uwtable
define hidden void @HIDAPI_JoystickDisconnected(ptr noundef captures(none) %0, i32 noundef %1) local_unnamed_addr #0 {
  tail call void @SDL_LockJoysticks_REAL() #9
  %3 = getelementptr inbounds nuw i8, ptr %0, i64 160
  %4 = load ptr, ptr %3, align 8
  %.not.i = icmp ne ptr %4, null
  %.phi.trans.insert.phi.trans.insert = getelementptr inbounds nuw i8, ptr %0, i64 140
  %.pre.pre = load i32, ptr %.phi.trans.insert.phi.trans.insert, align 4
  %5 = icmp eq i32 %.pre.pre, 1
  %or.cond = select i1 %.not.i, i1 %5, i1 false
  br i1 %or.cond, label %6, label %HIDAPI_JoystickInstanceIsUnique.exit

6:                                                ; preds = %2
  %7 = getelementptr inbounds nuw i8, ptr %4, i64 140
  %8 = load i32, ptr %7, align 4
  %9 = icmp eq i32 %8, 1
  br i1 %9, label %10, label %HIDAPI_JoystickInstanceIsUnique.exit.thread54

10:                                               ; preds = %6
  %11 = getelementptr inbounds nuw i8, ptr %0, i64 144
  %12 = load ptr, ptr %11, align 8
  %13 = load i32, ptr %12, align 4
  %14 = getelementptr inbounds nuw i8, ptr %4, i64 144
  %15 = load ptr, ptr %14, align 8
  %16 = load i32, ptr %15, align 4
  %17 = icmp eq i32 %13, %16
  br i1 %17, label %HIDAPI_JoystickInstanceIsUnique.exit.thread51, label %HIDAPI_JoystickInstanceIsUnique.exit.thread54

HIDAPI_JoystickInstanceIsUnique.exit.thread51:    ; preds = %10
  %18 = getelementptr inbounds nuw i8, ptr %4, i64 140
  br label %.lr.ph42

HIDAPI_JoystickInstanceIsUnique.exit.thread54:    ; preds = %6, %10
  %19 = getelementptr inbounds nuw i8, ptr %0, i64 140
  br label %.lr.ph42

HIDAPI_JoystickInstanceIsUnique.exit:             ; preds = %2
  %20 = icmp sgt i32 %.pre.pre, 0
  %21 = getelementptr inbounds nuw i8, ptr %0, i64 140
  br i1 %20, label %.lr.ph42, label %._crit_edge43

.lr.ph42:                                         ; preds = %HIDAPI_JoystickInstanceIsUnique.exit.thread54, %HIDAPI_JoystickInstanceIsUnique.exit.thread51, %HIDAPI_JoystickInstanceIsUnique.exit
  %22 = phi ptr [ %18, %HIDAPI_JoystickInstanceIsUnique.exit.thread51 ], [ %21, %HIDAPI_JoystickInstanceIsUnique.exit ], [ %19, %HIDAPI_JoystickInstanceIsUnique.exit.thread54 ]
  %.053 = phi ptr [ %4, %HIDAPI_JoystickInstanceIsUnique.exit.thread51 ], [ %0, %HIDAPI_JoystickInstanceIsUnique.exit ], [ %0, %HIDAPI_JoystickInstanceIsUnique.exit.thread54 ]
  %23 = getelementptr inbounds nuw i8, ptr %.053, i64 144
  %24 = getelementptr inbounds nuw i8, ptr %.053, i64 168
  %25 = getelementptr inbounds nuw i8, ptr %.053, i64 176
  br label %26

26:                                               ; preds = %.lr.ph42, %90
  %indvars.iv47 = phi i64 [ 0, %.lr.ph42 ], [ %indvars.iv.next48, %90 ]
  %27 = load ptr, ptr %23, align 8
  %28 = getelementptr inbounds nuw i32, ptr %27, i64 %indvars.iv47
  %29 = load i32, ptr %28, align 4
  %30 = icmp eq i32 %29, %1
  br i1 %30, label %31, label %90

31:                                               ; preds = %26
  %32 = tail call ptr @SDL_GetJoystickFromID_REAL(i32 noundef %1) #9
  %.not = icmp eq ptr %32, null
  br i1 %.not, label %34, label %33

33:                                               ; preds = %31
  tail call void @HIDAPI_JoystickClose(ptr noundef nonnull %32)
  br label %34

34:                                               ; preds = %33, %31
  %35 = load i32, ptr %22, align 4
  %36 = icmp sgt i32 %35, 0
  br i1 %36, label %.lr.ph.i, label %HIDAPI_DelJoystickInstanceFromDevice.exit

.lr.ph.i:                                         ; preds = %34
  %37 = load ptr, ptr %23, align 8
  %wide.trip.count.i = zext nneg i32 %35 to i64
  br label %38

38:                                               ; preds = %55, %.lr.ph.i
  %indvars.iv.i = phi i64 [ 0, %.lr.ph.i ], [ %indvars.iv.next.i, %55 ]
  %39 = getelementptr inbounds nuw i32, ptr %37, i64 %indvars.iv.i
  %40 = load i32, ptr %39, align 4
  %41 = icmp eq i32 %40, %1
  br i1 %41, label %42, label %55

42:                                               ; preds = %38
  %43 = getelementptr inbounds nuw i32, ptr %37, i64 %indvars.iv.i
  %44 = trunc nuw nsw i64 %indvars.iv.i to i32
  %45 = xor i32 %44, -1
  %46 = add nsw i32 %35, %45
  %47 = shl i32 %46, 2
  %48 = getelementptr inbounds nuw i8, ptr %43, i64 4
  %49 = sext i32 %47 to i64
  tail call void @llvm.memmove.p0.p0.i64(ptr nonnull align 4 %43, ptr nonnull align 4 %48, i64 %49, i1 false)
  %50 = load i32, ptr %22, align 4
  %51 = add nsw i32 %50, -1
  store i32 %51, ptr %22, align 4
  %52 = icmp eq i32 %51, 0
  br i1 %52, label %53, label %HIDAPI_DelJoystickInstanceFromDevice.exit

53:                                               ; preds = %42
  %54 = load ptr, ptr %23, align 8
  tail call void @SDL_free_REAL(ptr noundef %54) #9
  store ptr null, ptr %23, align 8
  br label %HIDAPI_DelJoystickInstanceFromDevice.exit

55:                                               ; preds = %38
  %indvars.iv.next.i = add nuw nsw i64 %indvars.iv.i, 1
  %exitcond.not.i = icmp eq i64 %indvars.iv.next.i, %wide.trip.count.i
  br i1 %exitcond.not.i, label %HIDAPI_DelJoystickInstanceFromDevice.exit, label %38, !llvm.loop !11

HIDAPI_DelJoystickInstanceFromDevice.exit:        ; preds = %55, %34, %42, %53
  %56 = load i32, ptr %24, align 8
  %57 = icmp sgt i32 %56, 0
  br i1 %57, label %.lr.ph, label %._crit_edge

.lr.ph:                                           ; preds = %HIDAPI_DelJoystickInstanceFromDevice.exit, %HIDAPI_DelJoystickInstanceFromDevice.exit31
  %indvars.iv = phi i64 [ %indvars.iv.next, %HIDAPI_DelJoystickInstanceFromDevice.exit31 ], [ 0, %HIDAPI_DelJoystickInstanceFromDevice.exit ]
  %58 = load ptr, ptr %25, align 8
  %59 = getelementptr inbounds nuw ptr, ptr %58, i64 %indvars.iv
  %60 = load ptr, ptr %59, align 8
  %61 = getelementptr inbounds nuw i8, ptr %60, i64 140
  %62 = load i32, ptr %61, align 4
  %63 = icmp sgt i32 %62, 0
  br i1 %63, label %.lr.ph.i26, label %HIDAPI_DelJoystickInstanceFromDevice.exit31

.lr.ph.i26:                                       ; preds = %.lr.ph
  %64 = getelementptr inbounds nuw i8, ptr %60, i64 144
  %65 = load ptr, ptr %64, align 8
  %wide.trip.count.i27 = zext nneg i32 %62 to i64
  br label %66

66:                                               ; preds = %83, %.lr.ph.i26
  %indvars.iv.i28 = phi i64 [ 0, %.lr.ph.i26 ], [ %indvars.iv.next.i29, %83 ]
  %67 = getelementptr inbounds nuw i32, ptr %65, i64 %indvars.iv.i28
  %68 = load i32, ptr %67, align 4
  %69 = icmp eq i32 %68, %1
  br i1 %69, label %70, label %83

70:                                               ; preds = %66
  %71 = getelementptr inbounds nuw i32, ptr %65, i64 %indvars.iv.i28
  %72 = trunc nuw nsw i64 %indvars.iv.i28 to i32
  %73 = xor i32 %72, -1
  %74 = add nsw i32 %62, %73
  %75 = shl i32 %74, 2
  %76 = getelementptr inbounds nuw i8, ptr %71, i64 4
  %77 = sext i32 %75 to i64
  tail call void @llvm.memmove.p0.p0.i64(ptr nonnull align 4 %71, ptr nonnull align 4 %76, i64 %77, i1 false)
  %78 = load i32, ptr %61, align 4
  %79 = add nsw i32 %78, -1
  store i32 %79, ptr %61, align 4
  %80 = icmp eq i32 %79, 0
  br i1 %80, label %81, label %HIDAPI_DelJoystickInstanceFromDevice.exit31

81:                                               ; preds = %70
  %82 = load ptr, ptr %64, align 8
  tail call void @SDL_free_REAL(ptr noundef %82) #9
  store ptr null, ptr %64, align 8
  br label %HIDAPI_DelJoystickInstanceFromDevice.exit31

83:                                               ; preds = %66
  %indvars.iv.next.i29 = add nuw nsw i64 %indvars.iv.i28, 1
  %exitcond.not.i30 = icmp eq i64 %indvars.iv.next.i29, %wide.trip.count.i27
  br i1 %exitcond.not.i30, label %HIDAPI_DelJoystickInstanceFromDevice.exit31, label %66, !llvm.loop !11

HIDAPI_DelJoystickInstanceFromDevice.exit31:      ; preds = %83, %.lr.ph, %70, %81
  %indvars.iv.next = add nuw nsw i64 %indvars.iv, 1
  %84 = load i32, ptr %24, align 8
  %85 = sext i32 %84 to i64
  %86 = icmp slt i64 %indvars.iv.next, %85
  br i1 %86, label %.lr.ph, label %._crit_edge, !llvm.loop !12

._crit_edge:                                      ; preds = %HIDAPI_DelJoystickInstanceFromDevice.exit31, %HIDAPI_DelJoystickInstanceFromDevice.exit
  %87 = load i32, ptr @SDL_HIDAPI_numjoysticks, align 4
  %88 = add nsw i32 %87, -1
  store i32 %88, ptr @SDL_HIDAPI_numjoysticks, align 4
  %.b25 = load i1, ptr @shutting_down, align 1
  br i1 %.b25, label %90, label %89

89:                                               ; preds = %._crit_edge
  tail call void @SDL_PrivateJoystickRemoved(i32 noundef %1) #9
  br label %90

90:                                               ; preds = %._crit_edge, %89, %26
  %indvars.iv.next48 = add nuw nsw i64 %indvars.iv47, 1
  %91 = load i32, ptr %22, align 4
  %92 = sext i32 %91 to i64
  %93 = icmp slt i64 %indvars.iv.next48, %92
  br i1 %93, label %26, label %._crit_edge43, !llvm.loop !13

._crit_edge43:                                    ; preds = %90, %HIDAPI_JoystickInstanceIsUnique.exit
  store i32 0, ptr @SDL_HIDAPI_change_count, align 4
  tail call void @SDL_UnlockJoysticks_REAL() #9
  ret void
}